; Function Attrs: nounwind uwtable
define dso_local noundef ptr @list_concat_copy(ptr noundef readonly captures(address_is_null) %0, ptr noundef readonly captures(address_is_null) %1) local_unnamed_addr #0 {
  %3 = icmp eq ptr %0, null
  %4 = icmp eq ptr %1, null
  br i1 %3, label %5, label %30

5:                                                ; preds = %2
  br i1 %4, label %list_copy.exit, label %6

6:                                                ; preds = %5
  %7 = load i32, ptr %1, align 8
  %8 = getelementptr inbounds nuw i8, ptr %1, i64 4
  %9 = load i32, ptr %8, align 4
  %10 = add i32 %9, 3
  %11 = tail call i32 @llvm.smax.i32(i32 %10, i32 8)
  %12 = tail call range(i32 1, 32) i32 @llvm.ctpop.i32(i32 %11)
  %13 = icmp samesign ult i32 %12, 2
  %14 = tail call range(i32 0, 33) i32 @llvm.ctlz.i32(i32 %11, i1 true)
  %15 = xor i32 %14, 31
  %16 = shl nuw i32 2, %15
  %.0.i.i.i = select i1 %13, i32 %11, i32 %16
  %17 = add i32 %.0.i.i.i, -3
  %18 = zext nneg i32 %17 to i64
  %19 = shl nuw nsw i64 %18, 3
  %20 = add nuw nsw i64 %19, 24
  %21 = tail call ptr @palloc(i64 noundef %20) #9
  store i32 %7, ptr %21, align 8
  %22 = getelementptr inbounds nuw i8, ptr %21, i64 4
  store i32 %9, ptr %22, align 4
  %23 = getelementptr inbounds nuw i8, ptr %21, i64 8
  store i32 %17, ptr %23, align 8
  %24 = getelementptr inbounds nuw i8, ptr %21, i64 24
  %25 = getelementptr inbounds nuw i8, ptr %21, i64 16
  store ptr %24, ptr %25, align 8
  %26 = getelementptr inbounds nuw i8, ptr %1, i64 16
  %27 = load ptr, ptr %26, align 8
  %28 = sext i32 %9 to i64
  %29 = shl nsw i64 %28, 3
  tail call void @llvm.memcpy.p0.p0.i64(ptr nonnull align 8 %24, ptr align 8 %27, i64 %29, i1 false)
  br label %list_copy.exit

30:                                               ; preds = %2
  br i1 %4, label %list_copy.exit20, label %54

list_copy.exit20:                                 ; preds = %30
  %31 = load i32, ptr %0, align 8
  %32 = getelementptr inbounds nuw i8, ptr %0, i64 4
  %33 = load i32, ptr %32, align 4
  %34 = add i32 %33, 3
  %35 = tail call i32 @llvm.smax.i32(i32 %34, i32 8)
  %36 = tail call range(i32 1, 32) i32 @llvm.ctpop.i32(i32 %35)
  %37 = icmp samesign ult i32 %36, 2
  %38 = tail call range(i32 0, 33) i32 @llvm.ctlz.i32(i32 %35, i1 true)
  %39 = xor i32 %38, 31
  %40 = shl nuw i32 2, %39
  %.0.i.i.i18 = select i1 %37, i32 %35, i32 %40
  %41 = add i32 %.0.i.i.i18, -3
  %42 = zext nneg i32 %41 to i64
  %43 = shl nuw nsw i64 %42, 3
  %44 = add nuw nsw i64 %43, 24
  %45 = tail call ptr @palloc(i64 noundef %44) #9
  store i32 %31, ptr %45, align 8
  %46 = getelementptr inbounds nuw i8, ptr %45, i64 4
  store i32 %33, ptr %46, align 4
  %47 = getelementptr inbounds nuw i8, ptr %45, i64 8
  store i32 %41, ptr %47, align 8
  %48 = getelementptr inbounds nuw i8, ptr %45, i64 24
  %49 = getelementptr inbounds nuw i8, ptr %45, i64 16
  store ptr %48, ptr %49, align 8
  %50 = getelementptr inbounds nuw i8, ptr %0, i64 16
  %51 = load ptr, ptr %50, align 8
  %52 = sext i32 %33 to i64
  %53 = shl nsw i64 %52, 3
  tail call void @llvm.memcpy.p0.p0.i64(ptr nonnull align 8 %48, ptr align 8 %51, i64 %53, i1 false)
  br label %list_copy.exit

54:                                               ; preds = %30
  %55 = getelementptr inbounds nuw i8, ptr %0, i64 4
  %56 = load i32, ptr %55, align 4
  %57 = getelementptr inbounds nuw i8, ptr %1, i64 4
  %58 = load i32, ptr %57, align 4
  %59 = add i32 %58, %56
  %60 = load i32, ptr %0, align 8
  %61 = add i32 %59, 3
  %62 = tail call i32 @llvm.smax.i32(i32 %61, i32 8)
  %63 = tail call range(i32 1, 32) i32 @llvm.ctpop.i32(i32 %62)
  %64 = icmp samesign ult i32 %63, 2
  %65 = tail call range(i32 0, 33) i32 @llvm.ctlz.i32(i32 %62, i1 true)
  %66 = xor i32 %65, 31
  %67 = shl nuw i32 2, %66
  %.0.i.i = select i1 %64, i32 %62, i32 %67
  %68 = add i32 %.0.i.i, -3
  %69 = zext nneg i32 %68 to i64
  %70 = shl nuw nsw i64 %69, 3
  %71 = add nuw nsw i64 %70, 24
  %72 = tail call ptr @palloc(i64 noundef %71) #9
  store i32 %60, ptr %72, align 8
  %73 = getelementptr inbounds nuw i8, ptr %72, i64 4
  store i32 %59, ptr %73, align 4
  %74 = getelementptr inbounds nuw i8, ptr %72, i64 8
  store i32 %68, ptr %74, align 8
  %75 = getelementptr inbounds nuw i8, ptr %72, i64 24
  %76 = getelementptr inbounds nuw i8, ptr %72, i64 16
  store ptr %75, ptr %76, align 8
  %77 = getelementptr inbounds nuw i8, ptr %0, i64 16
  %78 = load ptr, ptr %77, align 8
  %79 = load i32, ptr %55, align 4
  %80 = sext i32 %79 to i64
  %81 = shl nsw i64 %80, 3
  tail call void @llvm.memcpy.p0.p0.i64(ptr nonnull align 8 %75, ptr align 8 %78, i64 %81, i1 false)
  %82 = load i32, ptr %55, align 4
  %83 = sext i32 %82 to i64
  %84 = getelementptr inbounds %union.ListCell, ptr %75, i64 %83
  %85 = getelementptr inbounds nuw i8, ptr %1, i64 16
  %86 = load ptr, ptr %85, align 8
  %87 = load i32, ptr %57, align 4
  %88 = sext i32 %87 to i64
  %89 = shl nsw i64 %88, 3
  tail call void @llvm.memcpy.p0.p0.i64(ptr nonnull align 8 %84, ptr align 8 %86, i64 %89, i1 false)
  br label %list_copy.exit

list_copy.exit:                                   ; preds = %6, %5, %54, %list_copy.exit20
  %.0 = phi ptr [ %45, %list_copy.exit20 ], [ %72, %54 ], [ %21, %6 ], [ null, %5 ]
  ret ptr %.0
}